target datalayout = "e-m:e-p270:32:32-p271:32:32-p272:64:64-i64:64-i128:128-f80:128-n8:16:32:64-S128"
target triple = "x86_64-pc-linux-gnu"

%struct.AVCodecContext = type { ptr, i32, i32, ptr, i32, i32, ptr, ptr, ptr, i64, i32, i32, ptr, i32, %struct.AVRational, %struct.AVRational, %struct.AVRational, i32, i32, i32, i32, i32, %struct.AVRational, i32, i32, i32, i32, i32, i32, i32, i32, i32, i32, i32, ptr, ptr, i32, float, float, float, float, float, float, float, float, float, i32, i32, i32, i32, i32, i32, i32, i32, i32, i32, i32, i32, ptr, ptr, ptr, i32, i32, i32, i32, i32, i32, i32, i32, i32, i32, %struct.AVChannelLayout, i32, i32, i32, i32, i32, i32, i32, i32, ptr, i32, i32, i32, float, float, i32, i32, i32, i32, i32, ptr, i64, i64, float, float, i32, i32, ptr, ptr, i32, i32, i32, i32, i32, ptr, ptr, ptr, ptr, i32, i32, [8 x i64], i32, i32, i32, i32, i32, i32, i32, ptr, ptr, i32, i32, i32, i32, i32, i32, i32, i32, i32, i32, ptr, ptr, i32, i32, ptr, ptr, ptr, ptr, i32, i32, i64, i32, i32, i64, ptr, i64, ptr, i32, ptr, i32 }
%struct.AVRational = type { i32, i32 }
%struct.AVChannelLayout = type { i32, i32, %union.anon.0, ptr }
%union.anon.0 = type { i64 }
%struct.MSS2Context = type { %struct.VC1Context, i32, ptr, %struct.MSS12Context, %struct.MSS2DSPContext, [2 x %struct.SliceContext] }
%struct.VC1Context = type { %struct.MpegEncContext, %struct.IntraX8Context, %struct.H264ChromaContext, %struct.VC1DSPContext, i32, i32, i32, i32, i32, i32, i32, i32, i32, i32, i32, i32, i32, i32, i32, i32, i32, i32, i32, i32, i32, i32, i32, i32, i32, i32, i32, i32, i32, i32, i32, i32, i32, i32, i32, i32, i8, i8, i32, i32, i32, i32, i8, i8, [4 x [64 x i8]], i32, i32, ptr, ptr, i8, i8, i8, i8, i32, i32, i32, i32, i32, i32, i8, ptr, ptr, i32, i32, i32, i32, i32, ptr, [3 x ptr], i8, i8, i16, i8, i8, i32, i8, i8, ptr, i32, i32, ptr, ptr, ptr, i32, i32, i32, i32, [2 x [256 x i8]], [2 x [256 x i8]], [2 x [256 x i8]], [2 x [256 x i8]], [2 x [256 x i8]], [2 x [256 x i8]], ptr, ptr, i32, ptr, i32, i32, i32, i32, i32, i32, i8, i8, i32, i8, i8, i8, i8, i8, i8, i8, i32, i8, i8, ptr, i32, ptr, i32, i8, i8, i8, i8, i8, i8, i32, i32, i8, i8, ptr, ptr, ptr, ptr, i8, i8, ptr, i32, [64 x i8], ptr, ptr, ptr, [2 x ptr], ptr, [2 x ptr], i32, i32, i32, i32, i32, i32, i32, i32, [2 x i32], i32, i32, i32, i32, i32, i32, i32, i32, i32, i32, i32, i32, i32, i32, ptr, i32, i32, i32, i32, [2 x [2 x ptr]], i32, i32, i32, ptr, i32, i32, i32, i32, i32, ptr, ptr, ptr, ptr, ptr, ptr, i8, i8, i8, i32, i32, i32 }
%struct.MpegEncContext = type { ptr, i32, i32, i32, [12 x i32], i32, %struct.ScanTable, %struct.ScanTable, [64 x i8], [64 x i8], ptr, ptr, i32, i32, i32, i32, i32, i32, i32, i32, i32, i32, i32, i32, i32, i32, i32, i32, i32, i32, i32, i32, i64, i64, ptr, %struct.BufferPoolContext, i32, i32, %union.anon.1, i32, %struct.MPVWorkPicture, %struct.MPVWorkPicture, %struct.MPVWorkPicture, i32, [3 x i32], ptr, [3 x ptr], ptr, ptr, ptr, ptr, ptr, ptr, [3 x ptr], i32, ptr, ptr, ptr, ptr, %struct.ScratchpadContext, i32, i32, i32, i32, i32, i32, %struct.BlockDSPContext, %struct.H264ChromaContext, %struct.HpelDSPContext, %struct.IDCTDSPContext, %struct.QpelDSPContext, %struct.VideoDSPContext, %struct.H263DSPContext, ptr, [2 x [2 x ptr]], i32, i32, [2 x [4 x [2 x i32]]], [2 x [2 x i32]], [2 x [2 x [2 x i32]]], [2 x [64 x i16]], i32, i32, i32, i32, i32, [6 x i32], [6 x i32], [3 x ptr], ptr, [64 x i16], [64 x i16], [64 x i16], [64 x i16], i32, i32, %struct.GetBitContext, i32, i32, i32, i32, i32, i32, i32, i32, i32, i32, i32, i32, i32, i32, i32, i64, i64, i16, i16, i16, i16, i32, i32, i32, i32, i32, i32, i32, i32, i32, [3 x i32], i32, i32, i32, i32, i32, i32, %struct.GetBitContext, i32, [2 x [2 x i32]], i32, i32, i32, i32, i32, i32, i32, i32, i32, i32, i32, i32, i32, i32, [2 x i32], i32, i32, ptr, ptr, ptr, ptr, ptr, i32, i32, %struct.ERContext }
%struct.ScanTable = type { ptr, [64 x i8], [64 x i8] }
%struct.BufferPoolContext = type { ptr, ptr, ptr, ptr, ptr, i32, i32, i32 }
%union.anon.1 = type { [32 x ptr] }
%struct.MPVWorkPicture = type { [3 x ptr], [3 x i64], ptr, ptr, [2 x ptr], ptr, ptr, [2 x ptr], i32 }
%struct.ScratchpadContext = type { ptr, ptr, %union.anon.2, i32 }
%union.anon.2 = type { ptr }
%struct.BlockDSPContext = type { ptr, ptr, [2 x ptr] }
%struct.HpelDSPContext = type { [4 x [4 x ptr]], [4 x [4 x ptr]], [4 x [4 x ptr]], [4 x ptr] }
%struct.IDCTDSPContext = type { ptr, ptr, ptr, ptr, ptr, ptr, [64 x i8], i32, i32 }
%struct.QpelDSPContext = type { [2 x [16 x ptr]], [2 x [16 x ptr]], [2 x [16 x ptr]] }
%struct.VideoDSPContext = type { ptr, ptr }
%struct.H263DSPContext = type { ptr, ptr }
%struct.GetBitContext = type { ptr, ptr, i32, i32, i32 }
%struct.ERContext = type { ptr, ptr, i32, ptr, i32, i32, i32, i64, i64, i32, i32, ptr, ptr, [3 x ptr], ptr, ptr, [2 x [4 x [2 x i32]]], %struct.ERPicture, %struct.ERPicture, %struct.ERPicture, [2 x ptr], [2 x ptr], i16, i16, i32, i32, ptr, ptr }
%struct.ERPicture = type { ptr, ptr, ptr, [2 x ptr], [2 x ptr], ptr, i32 }
%struct.IntraX8Context = type { [4 x ptr], ptr, [3 x ptr], i32, ptr, [3 x [64 x i8]], %struct.WMV2DSPContext, [64 x i8], ptr, ptr, %struct.IntraX8DSPContext, %struct.BlockDSPContext, i32, i32, i32, i32, ptr, ptr, i32, i32, i32, [3 x ptr], [42 x i8], i32, i32, i32, i32, i32, i32, i32, i32, i32, i32, i32 }
%struct.WMV2DSPContext = type { ptr, ptr, [8 x ptr], i32 }
%struct.IntraX8DSPContext = type { ptr, ptr, [12 x ptr], ptr }
%struct.H264ChromaContext = type { [4 x ptr], [4 x ptr] }
%struct.VC1DSPContext = type { ptr, ptr, ptr, ptr, ptr, ptr, ptr, ptr, ptr, ptr, ptr, ptr, ptr, ptr, ptr, ptr, ptr, ptr, [2 x [16 x ptr]], [2 x [16 x ptr]], [3 x ptr], [3 x ptr], ptr, ptr, ptr, ptr, ptr, ptr, ptr }
%struct.MSS12Context = type { ptr, [256 x i32], ptr, ptr, i64, ptr, i64, ptr, ptr, i64, i32, i32, i32, i32, i32, i32, i32 }
%struct.MSS2DSPContext = type { ptr, ptr, ptr, ptr }
%struct.SliceContext = type { ptr, %struct.Model, %struct.Model, %struct.Model, %struct.Model, %struct.Model, %struct.PixContext, %struct.PixContext }
%struct.Model = type { [257 x i16], [257 x i16], [257 x i8], i32, i32, i32 }
%struct.PixContext = type { i32, i32, [12 x i8], %struct.Model, %struct.Model, [15 x [4 x %struct.Model]], i32 }

; Function Attrs: cold nounwind optsize uwtable
define internal i32 @mss2_decode_init(ptr noundef %0) #0 {
  %2 = alloca i32, align 4
  %3 = alloca ptr, align 8
  %4 = alloca ptr, align 8
  %5 = alloca ptr, align 8
  %6 = alloca i32, align 4
  %7 = alloca i32, align 4
  store ptr %0, ptr %3, align 8, !tbaa !4
  call void @llvm.lifetime.start.p0(i64 8, ptr %4) #10
  %8 = load ptr, ptr %3, align 8, !tbaa !4
  %9 = getelementptr inbounds nuw %struct.AVCodecContext, ptr %8, i32 0, i32 6
  %10 = load ptr, ptr %9, align 8, !tbaa !9
  store ptr %10, ptr %4, align 8, !tbaa !29
  call void @llvm.lifetime.start.p0(i64 8, ptr %5) #10
  %11 = load ptr, ptr %4, align 8, !tbaa !29
  %12 = getelementptr inbounds nuw %struct.MSS2Context, ptr %11, i32 0, i32 3
  store ptr %12, ptr %5, align 8, !tbaa !31
  call void @llvm.lifetime.start.p0(i64 4, ptr %6) #10
  %13 = load ptr, ptr %3, align 8, !tbaa !4
  %14 = load ptr, ptr %5, align 8, !tbaa !31
  %15 = getelementptr inbounds nuw %struct.MSS12Context, ptr %14, i32 0, i32 0
  store ptr %13, ptr %15, align 8, !tbaa !33
  %16 = load ptr, ptr %5, align 8, !tbaa !31
  %17 = load ptr, ptr %4, align 8, !tbaa !29
  %18 = getelementptr inbounds nuw %struct.MSS2Context, ptr %17, i32 0, i32 5
  %19 = getelementptr inbounds [2 x %struct.SliceContext], ptr %18, i64 0, i64 0
  %20 = load ptr, ptr %4, align 8, !tbaa !29
  %21 = getelementptr inbounds nuw %struct.MSS2Context, ptr %20, i32 0, i32 5
  %22 = getelementptr inbounds [2 x %struct.SliceContext], ptr %21, i64 0, i64 1
  %23 = call i32 @ff_mss12_decode_init(ptr noundef %16, i32 noundef 1, ptr noundef %19, ptr noundef %22)
  store i32 %23, ptr %6, align 4, !tbaa !35
  %24 = icmp ne i32 %23, 0
  br i1 %24, label %25, label %27

25:                                               ; preds = %1
  %26 = load i32, ptr %6, align 4, !tbaa !35
  store i32 %26, ptr %2, align 4
  store i32 1, ptr %7, align 4
  br label %89

27:                                               ; preds = %1
  %28 = call ptr @av_frame_alloc()
  %29 = load ptr, ptr %4, align 8, !tbaa !29
  %30 = getelementptr inbounds nuw %struct.MSS2Context, ptr %29, i32 0, i32 2
  store ptr %28, ptr %30, align 8, !tbaa !36
  %31 = load ptr, ptr %5, align 8, !tbaa !31
  %32 = getelementptr inbounds nuw %struct.MSS12Context, ptr %31, i32 0, i32 6
  %33 = load i64, ptr %32, align 8, !tbaa !67
  %34 = load ptr, ptr %5, align 8, !tbaa !31
  %35 = getelementptr inbounds nuw %struct.MSS12Context, ptr %34, i32 0, i32 4
  store i64 %33, ptr %35, align 8, !tbaa !68
  %36 = load ptr, ptr %5, align 8, !tbaa !31
  %37 = getelementptr inbounds nuw %struct.MSS12Context, ptr %36, i32 0, i32 4
  %38 = load i64, ptr %37, align 8, !tbaa !68
  %39 = load ptr, ptr %3, align 8, !tbaa !4
  %40 = getelementptr inbounds nuw %struct.AVCodecContext, ptr %39, i32 0, i32 19
  %41 = load i32, ptr %40, align 4, !tbaa !69
  %42 = sext i32 %41 to i64
  %43 = mul nsw i64 %38, %42
  %44 = call noalias ptr @av_mallocz(i64 noundef %43)
  %45 = load ptr, ptr %5, align 8, !tbaa !31
  %46 = getelementptr inbounds nuw %struct.MSS12Context, ptr %45, i32 0, i32 2
  store ptr %44, ptr %46, align 8, !tbaa !70
  %47 = load ptr, ptr %5, align 8, !tbaa !31
  %48 = getelementptr inbounds nuw %struct.MSS12Context, ptr %47, i32 0, i32 4
  %49 = load i64, ptr %48, align 8, !tbaa !68
  %50 = load ptr, ptr %3, align 8, !tbaa !4
  %51 = getelementptr inbounds nuw %struct.AVCodecContext, ptr %50, i32 0, i32 19
  %52 = load i32, ptr %51, align 4, !tbaa !69
  %53 = sext i32 %52 to i64
  %54 = mul nsw i64 %49, %53
  %55 = call noalias ptr @av_mallocz(i64 noundef %54)
  %56 = load ptr, ptr %5, align 8, !tbaa !31
  %57 = getelementptr inbounds nuw %struct.MSS12Context, ptr %56, i32 0, i32 3
  store ptr %55, ptr %57, align 8, !tbaa !71
  %58 = load ptr, ptr %5, align 8, !tbaa !31
  %59 = getelementptr inbounds nuw %struct.MSS12Context, ptr %58, i32 0, i32 2
  %60 = load ptr, ptr %59, align 8, !tbaa !70
  %61 = icmp ne ptr %60, null
  br i1 %61, label %62, label %72

62:                                               ; preds = %27
  %63 = load ptr, ptr %5, align 8, !tbaa !31
  %64 = getelementptr inbounds nuw %struct.MSS12Context, ptr %63, i32 0, i32 3
  %65 = load ptr, ptr %64, align 8, !tbaa !71
  %66 = icmp ne ptr %65, null
  br i1 %66, label %67, label %72

67:                                               ; preds = %62
  %68 = load ptr, ptr %4, align 8, !tbaa !29
  %69 = getelementptr inbounds nuw %struct.MSS2Context, ptr %68, i32 0, i32 2
  %70 = load ptr, ptr %69, align 8, !tbaa !36
  %71 = icmp ne ptr %70, null
  br i1 %71, label %73, label %72

72:                                               ; preds = %67, %62, %27
  store i32 -12, ptr %2, align 4
  store i32 1, ptr %7, align 4
  br label %89

73:                                               ; preds = %67
  %74 = load ptr, ptr %3, align 8, !tbaa !4
  %75 = call i32 @wmv9_init(ptr noundef %74) #11
  store i32 %75, ptr %6, align 4, !tbaa !35
  %76 = icmp ne i32 %75, 0
  br i1 %76, label %77, label %79

77:                                               ; preds = %73
  %78 = load i32, ptr %6, align 4, !tbaa !35
  store i32 %78, ptr %2, align 4
  store i32 1, ptr %7, align 4
  br label %89

79:                                               ; preds = %73
  %80 = load ptr, ptr %4, align 8, !tbaa !29
  %81 = getelementptr inbounds nuw %struct.MSS2Context, ptr %80, i32 0, i32 4
  call void @ff_mss2dsp_init(ptr noundef %81)
  %82 = load ptr, ptr %5, align 8, !tbaa !31
  %83 = getelementptr inbounds nuw %struct.MSS12Context, ptr %82, i32 0, i32 10
  %84 = load i32, ptr %83, align 8, !tbaa !72
  %85 = icmp eq i32 %84, 127
  %86 = select i1 %85, i32 39, i32 2
  %87 = load ptr, ptr %3, align 8, !tbaa !4
  %88 = getelementptr inbounds nuw %struct.AVCodecContext, ptr %87, i32 0, i32 23
  store i32 %86, ptr %88, align 8, !tbaa !73
  store i32 0, ptr %2, align 4
  store i32 1, ptr %7, align 4
  br label %89

89:                                               ; preds = %79, %77, %72, %25
  call void @llvm.lifetime.end.p0(i64 4, ptr %6) #10
  call void @llvm.lifetime.end.p0(i64 8, ptr %5) #10
  call void @llvm.lifetime.end.p0(i64 8, ptr %4) #10
  %90 = load i32, ptr %2, align 4
  ret i32 %90
}