; Function Attrs: cold nounwind optsize uwtable
define internal i32 @mss2_decode_init(ptr noundef %0) #0 {
  %2 = getelementptr inbounds nuw i8, ptr %0, i64 32
  %3 = load ptr, ptr %2, align 8, !tbaa !4
  %4 = getelementptr inbounds nuw i8, ptr %3, i64 10672
  store ptr %0, ptr %4, align 8, !tbaa !27
  %5 = getelementptr inbounds nuw i8, ptr %3, i64 11832
  %6 = getelementptr inbounds nuw i8, ptr %3, i64 179592
  %7 = tail call i32 @ff_mss12_decode_init(ptr noundef nonnull %4, i32 noundef 1, ptr noundef nonnull %5, ptr noundef nonnull %6) #11
  %.not = icmp eq i32 %7, 0
  br i1 %.not, label %8, label %38

8:                                                ; preds = %1
  %9 = tail call ptr @av_frame_alloc() #11
  %10 = getelementptr inbounds nuw i8, ptr %3, i64 10664
  store ptr %9, ptr %10, align 8, !tbaa !30
  %11 = getelementptr inbounds nuw i8, ptr %3, i64 11736
  %12 = load i64, ptr %11, align 8, !tbaa !61
  %13 = getelementptr inbounds nuw i8, ptr %3, i64 11720
  store i64 %12, ptr %13, align 8, !tbaa !62
  %14 = getelementptr inbounds nuw i8, ptr %0, i64 116
  %15 = load i32, ptr %14, align 4, !tbaa !63
  %16 = sext i32 %15 to i64
  %17 = mul nsw i64 %12, %16
  %18 = tail call noalias ptr @av_mallocz(i64 noundef %17) #11
  %19 = getelementptr inbounds nuw i8, ptr %3, i64 11704
  store ptr %18, ptr %19, align 8, !tbaa !64
  %20 = load i64, ptr %13, align 8, !tbaa !62
  %21 = load i32, ptr %14, align 4, !tbaa !63
  %22 = sext i32 %21 to i64
  %23 = mul nsw i64 %20, %22
  %24 = tail call noalias ptr @av_mallocz(i64 noundef %23) #11
  %25 = getelementptr inbounds nuw i8, ptr %3, i64 11712
  store ptr %24, ptr %25, align 8, !tbaa !65
  %26 = load ptr, ptr %19, align 8, !tbaa !64
  %.not27 = icmp eq ptr %26, null
  %.not28 = icmp eq ptr %24, null
  %or.cond = select i1 %.not27, i1 true, i1 %.not28
  br i1 %or.cond, label %38, label %27

27:                                               ; preds = %8
  %28 = load ptr, ptr %10, align 8, !tbaa !30
  %.not29 = icmp eq ptr %28, null
  br i1 %.not29, label %38, label %29

29:                                               ; preds = %27
  %30 = tail call fastcc i32 @wmv9_init(ptr noundef nonnull %0) #12
  %.not30 = icmp eq i32 %30, 0
  br i1 %.not30, label %31, label %38

31:                                               ; preds = %29
  %32 = getelementptr inbounds nuw i8, ptr %3, i64 11800
  tail call void @ff_mss2dsp_init(ptr noundef nonnull %32) #11
  %33 = getelementptr inbounds nuw i8, ptr %3, i64 11768
  %34 = load i32, ptr %33, align 8, !tbaa !66
  %35 = icmp eq i32 %34, 127
  %36 = select i1 %35, i32 39, i32 2
  %37 = getelementptr inbounds nuw i8, ptr %0, i64 136
  store i32 %36, ptr %37, align 8, !tbaa !67
  br label %38

38:                                               ; preds = %29, %8, %27, %1, %31
  %.0 = phi i32 [ 0, %31 ], [ %7, %1 ], [ -12, %27 ], [ -12, %8 ], [ %30, %29 ]
  ret i32 %.0
}